target datalayout = "e-m:e-p270:32:32-p271:32:32-p272:64:64-i64:64-i128:128-f80:128-n8:16:32:64-S128"
target triple = "x86_64-pc-linux-gnu"

%"struct.rocksdb::PerfContext" = type <{ %"struct.rocksdb::PerfContextBase", ptr, i8, [7 x i8] }>
%"struct.rocksdb::PerfContextBase" = type { i64, i64, i64, i64, i64, i64, i64, i64, i64, i64, i64, i64, i64, i64, i64, i64, i64, i64, i64, i64, i64, i64, i64, i64, i64, i64, i64, i64, i64, i64, i64, i64, i64, i64, i64, i64, i64, i64, i64, i64, i64, i64, i64, i64, i64, i64, i64, i64, i64, i64, i64, i64, i64, i64, i64, i64, i64, i64, i64, i64, i64, i64, i64, i64, i64, i64, i64, i64, i64, i64, i64, i64, i64, i64, i64, i64, i64, i64, i64, i64, i64, i64, i64, i64, i64, i64, i64, i64, i64, i64, i64, i64, i64, i64, i64, i64, i64, i64, i64, i64, i64, i64, i64, i64, i64, i64, i64 }
%"class.std::__shared_count" = type { ptr }
%"class.rocksdb::PerfStepTimer" = type { i8, i8, i32, ptr, i64, ptr, ptr }
%"class.std::__shared_ptr.556" = type { ptr, %"class.std::__shared_count" }

@_ZN7rocksdb10perf_levelE = external thread_local global i8, align 1
@_ZN7rocksdb12perf_contextE = external thread_local global %"struct.rocksdb::PerfContext", align 8

; Function Attrs: mustprogress uwtable
define linkonce_odr noundef i64 @_ZN7rocksdb13PerfStepTimer8time_nowEv(ptr noundef nonnull align 8 dereferenceable(40) %0) #3 comdat align 2 {
  %2 = alloca i64, align 8
  %3 = alloca ptr, align 8
  store ptr %0, ptr %3, align 8, !tbaa !318
  %4 = load ptr, ptr %3, align 8
  %5 = getelementptr inbounds nuw %"class.rocksdb::PerfStepTimer", ptr %4, i32 0, i32 1
  %6 = load i8, ptr %5, align 1, !tbaa !325, !range !207, !noundef !208
  %7 = trunc i8 %6 to i1
  br i1 %7, label %15, label %8

8:                                                ; preds = %1
  %9 = getelementptr inbounds nuw %"class.rocksdb::PerfStepTimer", ptr %4, i32 0, i32 3
  %10 = load ptr, ptr %9, align 8, !tbaa !327
  %11 = load ptr, ptr %10, align 8, !tbaa !22
  %12 = getelementptr inbounds ptr, ptr %11, i64 20
  %13 = load ptr, ptr %12, align 8
  %14 = call noundef i64 %13(ptr noundef nonnull align 8 dereferenceable(32) %10)
  store i64 %14, ptr %2, align 8
  br label %22

15:                                               ; preds = %1
  %16 = getelementptr inbounds nuw %"class.rocksdb::PerfStepTimer", ptr %4, i32 0, i32 3
  %17 = load ptr, ptr %16, align 8, !tbaa !327
  %18 = load ptr, ptr %17, align 8, !tbaa !22
  %19 = getelementptr inbounds ptr, ptr %18, i64 22
  %20 = load ptr, ptr %19, align 8
  %21 = call noundef i64 %20(ptr noundef nonnull align 8 dereferenceable(32) %17)
  store i64 %21, ptr %2, align 8
  br label %22

22:                                               ; preds = %15, %8
  %23 = load i64, ptr %2, align 8
  ret i64 %23
}

; Function Attrs: mustprogress nounwind uwtable
define linkonce_odr noundef ptr @_ZNKSt12__shared_ptrIN7rocksdb11SystemClockELN9__gnu_cxx12_Lock_policyE2EE3getEv(ptr noundef nonnull align 8 dereferenceable(16) %0) #5 comdat align 2 {
  %2 = alloca ptr, align 8
  store ptr %0, ptr %2, align 8, !tbaa !720
  %3 = load ptr, ptr %2, align 8
  %4 = getelementptr inbounds nuw %"class.std::__shared_ptr.556", ptr %3, i32 0, i32 0
  %5 = load ptr, ptr %4, align 8, !tbaa !722
  ret ptr %5
}

; Function Attrs: uwtable
define linkonce_odr hidden noundef ptr @_ZTWN7rocksdb10perf_levelE() #9 comdat {
  %1 = icmp ne ptr @_ZTHN7rocksdb10perf_levelE, null
  br i1 %1, label %2, label %3

2:                                                ; preds = %0
  call void @_ZTHN7rocksdb10perf_levelE()
  br label %3

3:                                                ; preds = %2, %0
  %4 = call align 1 ptr @llvm.threadlocal.address.p0(ptr align 1 @_ZN7rocksdb10perf_levelE)
  ret ptr %4
}

; Function Attrs: mustprogress uwtable
define linkonce_odr void @_ZN7rocksdb13PerfStepTimer5StartEv(ptr noundef nonnull align 8 dereferenceable(40) %0) #3 comdat align 2 {
  %2 = alloca ptr, align 8
  store ptr %0, ptr %2, align 8, !tbaa !318
  %3 = load ptr, ptr %2, align 8
  %4 = getelementptr inbounds nuw %"class.rocksdb::PerfStepTimer", ptr %3, i32 0, i32 0
  %5 = load i8, ptr %4, align 8, !tbaa !323, !range !207, !noundef !208
  %6 = trunc i8 %5 to i1
  br i1 %6, label %11, label %7

7:                                                ; preds = %1
  %8 = getelementptr inbounds nuw %"class.rocksdb::PerfStepTimer", ptr %3, i32 0, i32 6
  %9 = load ptr, ptr %8, align 8, !tbaa !330
  %10 = icmp ne ptr %9, null
  br i1 %10, label %11, label %14

11:                                               ; preds = %7, %1
  %12 = call noundef i64 @_ZN7rocksdb13PerfStepTimer8time_nowEv(ptr noundef nonnull align 8 dereferenceable(40) %3)
  %13 = getelementptr inbounds nuw %"class.rocksdb::PerfStepTimer", ptr %3, i32 0, i32 4
  store i64 %12, ptr %13, align 8, !tbaa !328
  br label %14

14:                                               ; preds = %11, %7
  ret void
}

; Function Attrs: mustprogress uwtable
define linkonce_odr void @_ZN7rocksdb13PerfStepTimerC2EPmPNS_11SystemClockEbNS_9PerfLevelEPNS_10StatisticsEj(ptr noundef nonnull align 8 dereferenceable(40) %0, ptr noundef %1, ptr noundef %2, i1 noundef zeroext %3, i8 noundef zeroext %4, ptr noundef %5, i32 noundef %6) unnamed_addr #3 comdat align 2 {
  %8 = alloca ptr, align 8
  %9 = alloca ptr, align 8
  %10 = alloca ptr, align 8
  %11 = alloca i8, align 1
  %12 = alloca i8, align 1
  %13 = alloca ptr, align 8
  %14 = alloca i32, align 4
  store ptr %0, ptr %8, align 8, !tbaa !318
  store ptr %1, ptr %9, align 8, !tbaa !320
  store ptr %2, ptr %10, align 8, !tbaa !322
  %15 = zext i1 %3 to i8
  store i8 %15, ptr %11, align 1, !tbaa !78
  store i8 %4, ptr %12, align 1, !tbaa !15
  store ptr %5, ptr %13, align 8, !tbaa !299
  store i32 %6, ptr %14, align 4, !tbaa !300
  %16 = load ptr, ptr %8, align 8
  %17 = getelementptr inbounds nuw %"class.rocksdb::PerfStepTimer", ptr %16, i32 0, i32 0
  %18 = call ptr @_ZTWN7rocksdb10perf_levelE()
  %19 = load i8, ptr %18, align 1, !tbaa !15
  %20 = zext i8 %19 to i32
  %21 = load i8, ptr %12, align 1, !tbaa !15
  %22 = zext i8 %21 to i32
  %23 = icmp sge i32 %20, %22
  %24 = zext i1 %23 to i8
  store i8 %24, ptr %17, align 8, !tbaa !323
  %25 = getelementptr inbounds nuw %"class.rocksdb::PerfStepTimer", ptr %16, i32 0, i32 1
  %26 = load i8, ptr %11, align 1, !tbaa !78, !range !207, !noundef !208
  %27 = trunc i8 %26 to i1
  %28 = zext i1 %27 to i8
  store i8 %28, ptr %25, align 1, !tbaa !325
  %29 = getelementptr inbounds nuw %"class.rocksdb::PerfStepTimer", ptr %16, i32 0, i32 2
  %30 = load i32, ptr %14, align 4, !tbaa !300
  store i32 %30, ptr %29, align 4, !tbaa !326
  %31 = getelementptr inbounds nuw %"class.rocksdb::PerfStepTimer", ptr %16, i32 0, i32 3
  %32 = getelementptr inbounds nuw %"class.rocksdb::PerfStepTimer", ptr %16, i32 0, i32 0
  %33 = load i8, ptr %32, align 8, !tbaa !323, !range !207, !noundef !208
  %34 = trunc i8 %33 to i1
  br i1 %34, label %38, label %35

35:                                               ; preds = %7
  %36 = load ptr, ptr %13, align 8, !tbaa !299
  %37 = icmp ne ptr %36, null
  br i1 %37, label %38, label %48

38:                                               ; preds = %35, %7
  %39 = load ptr, ptr %10, align 8, !tbaa !322
  %40 = icmp ne ptr %39, null
  br i1 %40, label %41, label %43

41:                                               ; preds = %38
  %42 = load ptr, ptr %10, align 8, !tbaa !322
  br label %46

43:                                               ; preds = %38
  %44 = call noundef nonnull align 8 dereferenceable(16) ptr @_ZN7rocksdb11SystemClock7DefaultEv()
  %45 = call noundef ptr @_ZNKSt12__shared_ptrIN7rocksdb11SystemClockELN9__gnu_cxx12_Lock_policyE2EE3getEv(ptr noundef nonnull align 8 dereferenceable(16) %44) #6
  br label %46

46:                                               ; preds = %43, %41
  %47 = phi ptr [ %42, %41 ], [ %45, %43 ]
  br label %49

48:                                               ; preds = %35
  br label %49

49:                                               ; preds = %48, %46
  %50 = phi ptr [ %47, %46 ], [ null, %48 ]
  store ptr %50, ptr %31, align 8, !tbaa !327
  %51 = getelementptr inbounds nuw %"class.rocksdb::PerfStepTimer", ptr %16, i32 0, i32 4
  store i64 0, ptr %51, align 8, !tbaa !328
  %52 = getelementptr inbounds nuw %"class.rocksdb::PerfStepTimer", ptr %16, i32 0, i32 5
  %53 = load ptr, ptr %9, align 8, !tbaa !320
  store ptr %53, ptr %52, align 8, !tbaa !329
  %54 = getelementptr inbounds nuw %"class.rocksdb::PerfStepTimer", ptr %16, i32 0, i32 6
  %55 = load ptr, ptr %13, align 8, !tbaa !299
  store ptr %55, ptr %54, align 8, !tbaa !330
  ret void
}

; Function Attrs: uwtable
define linkonce_odr hidden noundef ptr @_ZTWN7rocksdb12perf_contextE() #9 comdat {
  %1 = icmp ne ptr @_ZTHN7rocksdb12perf_contextE, null
  br i1 %1, label %2, label %3

2:                                                ; preds = %0
  call void @_ZTHN7rocksdb12perf_contextE()
  br label %3

3:                                                ; preds = %2, %0
  %4 = call align 8 ptr @llvm.threadlocal.address.p0(ptr align 8 @_ZN7rocksdb12perf_contextE)
  ret ptr %4
}

; Function Attrs: mustprogress uwtable
define noundef zeroext i1 @_ZN7rocksdb6DBIter17FindNextUserEntryEbPKNS_5SliceE(ptr noundef nonnull align 8 dereferenceable(1112) %0, i1 noundef zeroext %1, ptr noundef %2) #3 align 2 personality ptr @__gxx_personality_v0 {
  %4 = alloca ptr, align 8
  %5 = alloca i8, align 1
  %6 = alloca ptr, align 8
  %7 = alloca %"class.rocksdb::PerfStepTimer", align 8
  %8 = alloca ptr, align 8
  %9 = alloca i32, align 4
  store ptr %0, ptr %4, align 8, !tbaa !63
  %10 = zext i1 %1 to i8
  store i8 %10, ptr %5, align 1, !tbaa !78
  store ptr %2, ptr %6, align 8, !tbaa !13
  %11 = load ptr, ptr %4, align 8
  call void @llvm.lifetime.start.p0(i64 40, ptr %7) #6
  %12 = call ptr @_ZTWN7rocksdb12perf_contextE()
  %13 = getelementptr inbounds nuw %"struct.rocksdb::PerfContextBase", ptr %12, i32 0, i32 53
  call void @_ZN7rocksdb13PerfStepTimerC2EPmPNS_11SystemClockEbNS_9PerfLevelEPNS_10StatisticsEj(ptr noundef nonnull align 8 dereferenceable(40) %7, ptr noundef %13, ptr noundef null, i1 noundef zeroext false, i8 noundef zeroext 4, ptr noundef null, i32 noundef 0)
  invoke void @_ZN7rocksdb13PerfStepTimer5StartEv(ptr noundef nonnull align 8 dereferenceable(40) %7)
          to label %14 unwind label %20

14:                                               ; preds = %3
  %15 = load i8, ptr %5, align 1, !tbaa !78, !range !207, !noundef !208
  %16 = trunc i8 %15 to i1
  %17 = load ptr, ptr %6, align 8, !tbaa !13
  %18 = invoke noundef zeroext i1 @_ZN7rocksdb6DBIter25FindNextUserEntryInternalEbPKNS_5SliceE(ptr noundef nonnull align 8 dereferenceable(1112) %11, i1 noundef zeroext %16, ptr noundef %17)
          to label %19 unwind label %20

19:                                               ; preds = %14
  call void @_ZN7rocksdb13PerfStepTimerD2Ev(ptr noundef nonnull align 8 dereferenceable(40) %7) #6
  call void @llvm.lifetime.end.p0(i64 40, ptr %7) #6
  ret i1 %18

20:                                               ; preds = %14, %3
  %21 = landingpad { ptr, i32 }
          cleanup
  %22 = extractvalue { ptr, i32 } %21, 0
  store ptr %22, ptr %8, align 8
  %23 = extractvalue { ptr, i32 } %21, 1
  store i32 %23, ptr %9, align 4
  call void @_ZN7rocksdb13PerfStepTimerD2Ev(ptr noundef nonnull align 8 dereferenceable(40) %7) #6
  call void @llvm.lifetime.end.p0(i64 40, ptr %7) #6
  br label %24

24:                                               ; preds = %20
  %25 = load ptr, ptr %8, align 8
  %26 = load i32, ptr %9, align 4
  %27 = insertvalue { ptr, i32 } poison, ptr %25, 0
  %28 = insertvalue { ptr, i32 } %27, i32 %26, 1
  resume { ptr, i32 } %28
}