; Function Attrs: uwtable
define noundef zeroext i1 @_ZN7rocksdb6DBIter17FindNextUserEntryEbPKNS_5SliceE(ptr noundef nonnull align 8 dereferenceable(1112) %0, i1 noundef zeroext %1, ptr noundef %2) local_unnamed_addr #9 align 2 personality ptr @__gxx_personality_v0 {
  %4 = alloca %"class.rocksdb::PerfStepTimer", align 8
  call void @llvm.lifetime.start.p0(i64 40, ptr nonnull %4) #25
  %.not.i = icmp eq ptr @_ZTHN7rocksdb12perf_contextE, null
  br i1 %.not.i, label %_ZTWN7rocksdb12perf_contextE.exit, label %5

5:                                                ; preds = %3
  tail call void @_ZTHN7rocksdb12perf_contextE()
  br label %_ZTWN7rocksdb12perf_contextE.exit

_ZTWN7rocksdb12perf_contextE.exit:                ; preds = %3, %5
  %6 = tail call noundef align 8 ptr @llvm.threadlocal.address.p0(ptr align 8 @_ZN7rocksdb12perf_contextE)
  %7 = getelementptr inbounds nuw i8, ptr %6, i64 424
  %.not.i.i = icmp eq ptr @_ZTHN7rocksdb10perf_levelE, null
  br i1 %.not.i.i, label %_ZTWN7rocksdb10perf_levelE.exit.i, label %8

8:                                                ; preds = %_ZTWN7rocksdb12perf_contextE.exit
  tail call void @_ZTHN7rocksdb10perf_levelE()
  br label %_ZTWN7rocksdb10perf_levelE.exit.i

_ZTWN7rocksdb10perf_levelE.exit.i:                ; preds = %8, %_ZTWN7rocksdb12perf_contextE.exit
  %9 = tail call noundef align 1 ptr @llvm.threadlocal.address.p0(ptr align 1 @_ZN7rocksdb10perf_levelE)
  %10 = load i8, ptr %9, align 1, !tbaa !275
  %11 = icmp ugt i8 %10, 3
  %12 = zext i1 %11 to i8
  store i8 %12, ptr %4, align 8, !tbaa !279
  %13 = getelementptr inbounds nuw i8, ptr %4, i64 1
  store i8 0, ptr %13, align 1, !tbaa !282
  %14 = getelementptr inbounds nuw i8, ptr %4, i64 4
  store i32 0, ptr %14, align 4, !tbaa !283
  br i1 %11, label %19, label %_ZN7rocksdb13PerfStepTimerC2EPmPNS_11SystemClockEbNS_9PerfLevelEPNS_10StatisticsEj.exit

_ZN7rocksdb13PerfStepTimerC2EPmPNS_11SystemClockEbNS_9PerfLevelEPNS_10StatisticsEj.exit: ; preds = %_ZTWN7rocksdb10perf_levelE.exit.i
  %15 = getelementptr inbounds nuw i8, ptr %4, i64 8
  %16 = getelementptr inbounds nuw i8, ptr %4, i64 16
  %17 = getelementptr inbounds nuw i8, ptr %4, i64 24
  call void @llvm.memset.p0.i64(ptr noundef nonnull align 8 dereferenceable(16) %15, i8 0, i64 16, i1 false)
  store ptr %7, ptr %17, align 8, !tbaa !286
  %18 = getelementptr inbounds nuw i8, ptr %4, i64 32
  store ptr null, ptr %18, align 8, !tbaa !287
  br label %_ZN7rocksdb13PerfStepTimer5StartEv.exit

19:                                               ; preds = %_ZTWN7rocksdb10perf_levelE.exit.i
  %20 = tail call noundef nonnull align 8 dereferenceable(16) ptr @_ZN7rocksdb11SystemClock7DefaultEv()
  %21 = load ptr, ptr %20, align 8, !tbaa !284
  %22 = getelementptr inbounds nuw i8, ptr %4, i64 8
  store ptr %21, ptr %22, align 8, !tbaa !288
  %23 = getelementptr inbounds nuw i8, ptr %4, i64 16
  store i64 0, ptr %23, align 8, !tbaa !289
  %24 = getelementptr inbounds nuw i8, ptr %4, i64 24
  store ptr %7, ptr %24, align 8, !tbaa !286
  %25 = getelementptr inbounds nuw i8, ptr %4, i64 32
  store ptr null, ptr %25, align 8, !tbaa !287
  %26 = load ptr, ptr %21, align 8, !tbaa !18
  %27 = getelementptr inbounds nuw i8, ptr %26, i64 160
  %28 = load ptr, ptr %27, align 8
  %29 = invoke noundef i64 %28(ptr noundef nonnull align 8 dereferenceable(32) %21)
          to label %.noexc unwind label %47

.noexc:                                           ; preds = %19
  store i64 %29, ptr %23, align 8, !tbaa !289
  br label %_ZN7rocksdb13PerfStepTimer5StartEv.exit

_ZN7rocksdb13PerfStepTimer5StartEv.exit:          ; preds = %_ZN7rocksdb13PerfStepTimerC2EPmPNS_11SystemClockEbNS_9PerfLevelEPNS_10StatisticsEj.exit, %.noexc
  %30 = phi ptr [ %23, %.noexc ], [ %16, %_ZN7rocksdb13PerfStepTimerC2EPmPNS_11SystemClockEbNS_9PerfLevelEPNS_10StatisticsEj.exit ]
  %31 = phi ptr [ %21, %.noexc ], [ null, %_ZN7rocksdb13PerfStepTimerC2EPmPNS_11SystemClockEbNS_9PerfLevelEPNS_10StatisticsEj.exit ]
  %32 = phi i64 [ %29, %.noexc ], [ 0, %_ZN7rocksdb13PerfStepTimerC2EPmPNS_11SystemClockEbNS_9PerfLevelEPNS_10StatisticsEj.exit ]
  %33 = invoke noundef zeroext i1 @_ZN7rocksdb6DBIter25FindNextUserEntryInternalEbPKNS_5SliceE(ptr noundef nonnull align 8 dereferenceable(1112) %0, i1 noundef zeroext %1, ptr noundef %2)
          to label %34 unwind label %47

34:                                               ; preds = %_ZN7rocksdb13PerfStepTimer5StartEv.exit
  %.not.i.i5 = icmp eq i64 %32, 0
  br i1 %.not.i.i5, label %_ZN7rocksdb13PerfStepTimerD2Ev.exit, label %35

35:                                               ; preds = %34
  %36 = load ptr, ptr %31, align 8, !tbaa !18
  %37 = getelementptr inbounds nuw i8, ptr %36, i64 160
  %38 = load ptr, ptr %37, align 8
  %39 = invoke noundef i64 %38(ptr noundef nonnull align 8 dereferenceable(32) %31)
          to label %.noexc.i unwind label %44

.noexc.i:                                         ; preds = %35
  br i1 %11, label %40, label %.noexc1.i

40:                                               ; preds = %.noexc.i
  %41 = sub i64 %39, %32
  %42 = load i64, ptr %7, align 8, !tbaa !156
  %43 = add i64 %42, %41
  store i64 %43, ptr %7, align 8, !tbaa !156
  br label %.noexc1.i

.noexc1.i:                                        ; preds = %.noexc.i, %40
  store i64 0, ptr %30, align 8, !tbaa !289
  br label %_ZN7rocksdb13PerfStepTimerD2Ev.exit

44:                                               ; preds = %35
  %45 = landingpad { ptr, i32 }
          catch ptr null
  %46 = extractvalue { ptr, i32 } %45, 0
  tail call void @__clang_call_terminate(ptr %46) #26
  unreachable

_ZN7rocksdb13PerfStepTimerD2Ev.exit:              ; preds = %34, %.noexc1.i
  call void @llvm.lifetime.end.p0(i64 40, ptr nonnull %4) #25
  ret i1 %33

47:                                               ; preds = %19, %_ZN7rocksdb13PerfStepTimer5StartEv.exit
  %48 = landingpad { ptr, i32 }
          cleanup
  call void @_ZN7rocksdb13PerfStepTimerD2Ev(ptr noundef nonnull align 8 dereferenceable(40) %4) #25
  call void @llvm.lifetime.end.p0(i64 40, ptr nonnull %4) #25
  resume { ptr, i32 } %48
}